; Function Attrs: nounwind uwtable
define internal i32 @aes_cbc_cts_dinit(ptr noundef %0, ptr noundef %1, i64 noundef %2, ptr noundef %3, i64 noundef %4, ptr noundef %5) #0 {
  %7 = tail call i32 @ossl_cipher_generic_dinit(ptr noundef %0, ptr noundef %1, i64 noundef %2, ptr noundef %3, i64 noundef %4, ptr noundef null) #3
  %.not = icmp eq i32 %7, 0
  br i1 %.not, label %aes_cbc_cts_set_ctx_params.exit, label %8

8:                                                ; preds = %6
  %9 = tail call ptr @OSSL_PARAM_locate_const(ptr noundef %5, ptr noundef nonnull @.str.1) #3
  %.not.i = icmp eq ptr %9, null
  br i1 %.not.i, label %20, label %10

10:                                               ; preds = %8
  %11 = getelementptr inbounds nuw i8, ptr %9, i64 8
  %12 = load i32, ptr %11, align 8, !tbaa !16
  %.not12.i = icmp eq i32 %12, 4
  br i1 %.not12.i, label %13, label %22

13:                                               ; preds = %10
  %14 = getelementptr inbounds nuw i8, ptr %9, i64 16
  %15 = load ptr, ptr %14, align 8, !tbaa !18
  %16 = tail call i32 @ossl_cipher_cbc_cts_mode_name2id(ptr noundef %15) #3
  %17 = icmp slt i32 %16, 0
  br i1 %17, label %22, label %18

18:                                               ; preds = %13
  %19 = getelementptr inbounds nuw i8, ptr %0, i64 104
  store i32 %16, ptr %19, align 8, !tbaa !19
  br label %20

20:                                               ; preds = %18, %8
  %21 = tail call i32 @ossl_cipher_generic_set_ctx_params(ptr noundef %0, ptr noundef %5) #3
  br label %aes_cbc_cts_set_ctx_params.exit

22:                                               ; preds = %13, %10
  tail call void @ERR_new() #3
  tail call void @ERR_set_debug(ptr noundef nonnull @.str.2, i32 noundef 85, ptr noundef nonnull @__func__.aes_cbc_cts_set_ctx_params) #3
  tail call void (i32, i32, ptr, ...) @ERR_set_error(i32 noundef 57, i32 noundef 104, ptr noundef null) #3
  br label %aes_cbc_cts_set_ctx_params.exit

aes_cbc_cts_set_ctx_params.exit:                  ; preds = %22, %20, %6
  %.0 = phi i32 [ 0, %6 ], [ 0, %22 ], [ %21, %20 ]
  ret i32 %.0
}